; Function Attrs: mustprogress nofree norecurse nosync nounwind sspstrong willreturn memory(read, inaccessiblemem: none) uwtable
define internal range(i64 0, 21) i64 @builtin_inline_class_349(ptr noundef readonly captures(none) %0, i64 %1) #4 {
  %3 = getelementptr inbounds nuw i8, ptr %0, i64 16
  %4 = load ptr, ptr %3, align 8, !tbaa !46
  %5 = getelementptr inbounds nuw i8, ptr %4, i64 32
  %6 = load ptr, ptr %5, align 8, !tbaa !467
  %7 = getelementptr i8, ptr %6, i64 -24
  %8 = load i64, ptr %7, align 8, !tbaa !93
  %9 = and i64 %8, 255
  %10 = icmp eq i64 %9, 12
  br i1 %10, label %RB_SYMBOL_P.exit.thread, label %11

11:                                               ; preds = %2
  %12 = icmp eq i64 %8, 0
  %13 = and i64 %8, 7
  %14 = icmp ne i64 %13, 0
  %15 = or i1 %12, %14
  br i1 %15, label %RB_SYMBOL_P.exit.thread, label %RB_SYMBOL_P.exit

RB_SYMBOL_P.exit:                                 ; preds = %11
  %16 = inttoptr i64 %8 to ptr
  %17 = load i64, ptr %16, align 8, !tbaa !113
  %18 = and i64 %17, 31
  %19 = icmp eq i64 %18, 20
  br i1 %19, label %RB_SYMBOL_P.exit.thread, label %rbimpl_RB_TYPE_P_fastpath.exit

rbimpl_RB_TYPE_P_fastpath.exit:                   ; preds = %RB_SYMBOL_P.exit
  %20 = inttoptr i64 %8 to ptr
  %21 = load i64, ptr %20, align 8, !tbaa !113
  %.fr6 = freeze i64 %21
  %22 = and i64 %.fr6, 31
  %23 = icmp eq i64 %22, 8
  %spec.select = select i1 %23, i64 0, i64 20
  br label %RB_SYMBOL_P.exit.thread

RB_SYMBOL_P.exit.thread:                          ; preds = %11, %rbimpl_RB_TYPE_P_fastpath.exit, %2, %RB_SYMBOL_P.exit
  %24 = phi i64 [ 0, %RB_SYMBOL_P.exit ], [ 0, %2 ], [ %spec.select, %rbimpl_RB_TYPE_P_fastpath.exit ], [ 20, %11 ]
  ret i64 %24
}